target datalayout = "e-m:e-p270:32:32-p271:32:32-p272:64:64-i64:64-i128:128-f80:128-n8:16:32:64-S128"
target triple = "x86_64-unknown-linux-gnu"

; Function Attrs: mustprogress uwtable
define void @_ZN9grpc_core9Transport16SetPollingEntityEP11grpc_streamP19grpc_polling_entity(ptr noundef nonnull align 8 dereferenceable(8) %this, ptr noundef %stream, ptr noundef %pollset_or_pollset_set) #4 align 2 {
entry:
  %this.addr = alloca ptr, align 8
  %stream.addr = alloca ptr, align 8
  %pollset_or_pollset_set.addr = alloca ptr, align 8
  %pollset = alloca ptr, align 8
  %pollset_set = alloca ptr, align 8
  store ptr %this, ptr %this.addr, align 8
  store ptr %stream, ptr %stream.addr, align 8
  store ptr %pollset_or_pollset_set, ptr %pollset_or_pollset_set.addr, align 8
  %this1 = load ptr, ptr %this.addr, align 8
  %0 = load ptr, ptr %pollset_or_pollset_set.addr, align 8
  %call = call noundef ptr @_Z27grpc_polling_entity_pollsetP19grpc_polling_entity(ptr noundef %0)
  store ptr %call, ptr %pollset, align 8
  %1 = load ptr, ptr %pollset, align 8
  %tobool = icmp ne ptr %1, null
  br i1 %tobool, label %if.then, label %if.else

if.then:                                          ; preds = %entry
  %2 = load ptr, ptr %stream.addr, align 8
  %3 = load ptr, ptr %pollset, align 8
  %vtable = load ptr, ptr %this1, align 8
  %vfn = getelementptr inbounds ptr, ptr %vtable, i64 7
  %4 = load ptr, ptr %vfn, align 8
  call void %4(ptr noundef nonnull align 8 dereferenceable(8) %this1, ptr noundef %2, ptr noundef %3)
  br label %if.end8

if.else:                                          ; preds = %entry
  %5 = load ptr, ptr %pollset_or_pollset_set.addr, align 8
  %call2 = call noundef ptr @_Z31grpc_polling_entity_pollset_setP19grpc_polling_entity(ptr noundef %5)
  store ptr %call2, ptr %pollset_set, align 8
  %6 = load ptr, ptr %pollset_set, align 8
  %tobool3 = icmp ne ptr %6, null
  br i1 %tobool3, label %if.then4, label %if.else7

if.then4:                                         ; preds = %if.else
  %7 = load ptr, ptr %stream.addr, align 8
  %8 = load ptr, ptr %pollset_set, align 8
  %vtable5 = load ptr, ptr %this1, align 8
  %vfn6 = getelementptr inbounds ptr, ptr %vtable5, i64 8
  %9 = load ptr, ptr %vfn6, align 8
  call void %9(ptr noundef nonnull align 8 dereferenceable(8) %this1, ptr noundef %7, ptr noundef %8)
  br label %if.end

if.else7:                                         ; preds = %if.else
  br label %if.end

if.end:                                           ; preds = %if.else7, %if.then4
  br label %if.end8

if.end8:                                          ; preds = %if.end, %if.then
  ret void
}