; Function Attrs: mustprogress uwtable
define void @_ZN9grpc_core9Transport16SetPollingEntityEP11grpc_streamP19grpc_polling_entity(ptr noundef nonnull align 8 dereferenceable(8) %this, ptr noundef %stream, ptr noundef %pollset_or_pollset_set) local_unnamed_addr #5 align 2 {
entry:
  %call = tail call noundef ptr @_Z27grpc_polling_entity_pollsetP19grpc_polling_entity(ptr noundef %pollset_or_pollset_set)
  %tobool.not = icmp eq ptr %call, null
  br i1 %tobool.not, label %if.else, label %if.end8.sink.split

if.else:                                          ; preds = %entry
  %call2 = tail call noundef ptr @_Z31grpc_polling_entity_pollset_setP19grpc_polling_entity(ptr noundef %pollset_or_pollset_set)
  %tobool3.not = icmp eq ptr %call2, null
  br i1 %tobool3.not, label %if.end8, label %if.end8.sink.split

if.end8.sink.split:                               ; preds = %if.else, %entry
  %.sink = phi i64 [ 56, %entry ], [ 64, %if.else ]
  %call2.sink = phi ptr [ %call, %entry ], [ %call2, %if.else ]
  %vtable5 = load ptr, ptr %this, align 8
  %vfn6 = getelementptr inbounds i8, ptr %vtable5, i64 %.sink
  %0 = load ptr, ptr %vfn6, align 8
  tail call void %0(ptr noundef nonnull align 8 dereferenceable(8) %this, ptr noundef %stream, ptr noundef nonnull %call2.sink)
  br label %if.end8

if.end8:                                          ; preds = %if.end8.sink.split, %if.else
  ret void
}